target datalayout = "e-m:e-p270:32:32-p271:32:32-p272:64:64-i64:64-i128:128-f80:128-n8:16:32:64-S128"
target triple = "x86_64-pc-linux-gnu"

%"class.google::protobuf::internal::InternalMetadata" = type { i64 }
%"struct.google::protobuf::internal::ArenaStringPtr" = type { %"class.google::protobuf::internal::TaggedPtr" }
%"class.google::protobuf::internal::TaggedPtr" = type { ptr }
%"class.opencv_tensorflow::TensorShapeProto_Dim" = type <{ %"class.google::protobuf::Message", %"struct.google::protobuf::internal::ArenaStringPtr", i64, %"class.google::protobuf::internal::CachedSize", [4 x i8] }>
%"class.google::protobuf::Message" = type { %"class.google::protobuf::MessageLite" }
%"class.google::protobuf::MessageLite" = type { ptr, %"class.google::protobuf::internal::InternalMetadata" }
%"class.google::protobuf::internal::CachedSize" = type { %"struct.std::atomic" }
%"struct.std::atomic" = type { %"struct.std::__atomic_base" }
%"struct.std::__atomic_base" = type { i32 }
%"class.google::protobuf::internal::LogMessage" = type { i32, ptr, i32, %"class.std::__cxx11::basic_string" }
%"class.std::__cxx11::basic_string" = type { %"struct.std::__cxx11::basic_string<char>::_Alloc_hider", i64, %union.anon.1 }
%"struct.std::__cxx11::basic_string<char>::_Alloc_hider" = type { ptr }
%union.anon.1 = type { i64, [8 x i8] }
%"class.google::protobuf::internal::LogFinisher" = type { i8 }
%"class.opencv_tensorflow::TensorShapeProto" = type { %"class.google::protobuf::Message", %"class.google::protobuf::RepeatedPtrField", i8, %"class.google::protobuf::internal::CachedSize" }
%"class.google::protobuf::RepeatedPtrField" = type { %"class.google::protobuf::internal::RepeatedPtrFieldBase" }
%"class.google::protobuf::internal::RepeatedPtrFieldBase" = type { ptr, i32, i32, ptr }
%"struct.google::protobuf::internal::RepeatedPtrFieldBase::Rep" = type { i32, [268435454 x ptr] }

@.str.11 = private unnamed_addr constant [150 x i8] c"generated/home/dtcxzyw/WorkSpace/Projects/compilers/llvm-opt-benchmark/bench/opencv/opencv/3rdparty/protobuf/src/google/protobuf/repeated_ptr_field.h\00", align 1
@.str.14 = private unnamed_addr constant [27 x i8] c"CHECK failed: (n) >= (0): \00", align 1

; Function Attrs: mustprogress uwtable
define hidden void @_ZN17opencv_tensorflow20TensorShapeProto_Dim5ClearEv(ptr noundef nonnull align 8 dereferenceable(40) %0) unnamed_addr #4 align 2 {
  %2 = alloca ptr, align 8
  %3 = alloca i32, align 4
  store ptr %0, ptr %2, align 8, !tbaa !3
  %4 = load ptr, ptr %2, align 8
  call void @llvm.lifetime.start.p0(i64 4, ptr %3) #3
  store i32 0, ptr %3, align 4, !tbaa !43
  %5 = getelementptr inbounds nuw %"class.opencv_tensorflow::TensorShapeProto_Dim", ptr %4, i32 0, i32 1
  call void @_ZN6google8protobuf8internal14ArenaStringPtr12ClearToEmptyEv(ptr noundef nonnull align 8 dereferenceable(8) %5)
  %6 = getelementptr inbounds nuw %"class.opencv_tensorflow::TensorShapeProto_Dim", ptr %4, i32 0, i32 2
  store i64 0, ptr %6, align 8, !tbaa !20
  %7 = getelementptr inbounds nuw %"class.google::protobuf::MessageLite", ptr %4, i32 0, i32 1
  call void @_ZN6google8protobuf8internal16InternalMetadata5ClearINS0_15UnknownFieldSetEEEvv(ptr noundef nonnull align 8 dereferenceable(8) %7)
  call void @llvm.lifetime.end.p0(i64 4, ptr %3) #3
  ret void
}

; Function Attrs: alwaysinline mustprogress nounwind uwtable
define linkonce_odr hidden noundef zeroext i1 @_ZNK6google8protobuf8internal16InternalMetadata19HasUnknownFieldsTagEv(ptr noundef nonnull align 8 dereferenceable(8) %0) #13 comdat align 2 {
  %2 = alloca ptr, align 8
  store ptr %0, ptr %2, align 8, !tbaa !34
  %3 = load ptr, ptr %2, align 8
  %4 = getelementptr inbounds nuw %"class.google::protobuf::internal::InternalMetadata", ptr %3, i32 0, i32 0
  %5 = load i64, ptr %4, align 8, !tbaa !101
  %6 = and i64 %5, 1
  %7 = icmp ne i64 %6, 0
  ret i1 %7
}

; Function Attrs: inlinehint mustprogress uwtable
define linkonce_odr hidden void @_ZN6google8protobuf8internal18GenericTypeHandlerIN17opencv_tensorflow20TensorShapeProto_DimEE5ClearEPS4_(ptr noundef %0) #5 comdat align 2 {
  %2 = alloca ptr, align 8
  store ptr %0, ptr %2, align 8, !tbaa !3
  %3 = load ptr, ptr %2, align 8, !tbaa !3
  call void @_ZN17opencv_tensorflow20TensorShapeProto_Dim5ClearEv(ptr noundef nonnull align 8 dereferenceable(40) %3)
  ret void
}

; Function Attrs: inlinehint mustprogress nounwind uwtable
define linkonce_odr hidden noundef ptr @_ZN6google8protobuf8internal20RepeatedPtrFieldBase4castINS0_16RepeatedPtrFieldIN17opencv_tensorflow20TensorShapeProto_DimEE11TypeHandlerEEEPNT_4TypeEPv(ptr noundef %0) #6 comdat align 2 {
  %2 = alloca ptr, align 8
  store ptr %0, ptr %2, align 8, !tbaa !42
  %3 = load ptr, ptr %2, align 8, !tbaa !42
  ret ptr %3
}

; Function Attrs: alwaysinline mustprogress uwtable
define linkonce_odr hidden noundef zeroext i1 @_ZNK6google8protobuf8internal16InternalMetadata19have_unknown_fieldsEv(ptr noundef nonnull align 8 dereferenceable(8) %0) #8 comdat align 2 {
  %2 = alloca ptr, align 8
  store ptr %0, ptr %2, align 8, !tbaa !34
  %3 = load ptr, ptr %2, align 8
  %4 = call noundef zeroext i1 @_ZNK6google8protobuf8internal16InternalMetadata19HasUnknownFieldsTagEv(ptr noundef nonnull align 8 dereferenceable(8) %3)
  ret i1 %4
}

; Function Attrs: mustprogress uwtable
define linkonce_odr hidden void @_ZN6google8protobuf8internal20RepeatedPtrFieldBase5ClearINS0_16RepeatedPtrFieldIN17opencv_tensorflow20TensorShapeProto_DimEE11TypeHandlerEEEvv(ptr noundef nonnull align 8 dereferenceable(24) %0) #4 comdat align 2 personality ptr @__gxx_personality_v0 {
  %2 = alloca ptr, align 8
  %3 = alloca i32, align 4
  %4 = alloca %"class.google::protobuf::internal::LogMessage", align 8
  %5 = alloca i1, align 1
  %6 = alloca i1, align 1
  %7 = alloca ptr, align 8
  %8 = alloca i32, align 4
  %9 = alloca %"class.google::protobuf::internal::LogFinisher", align 1
  %10 = alloca ptr, align 8
  %11 = alloca i32, align 4
  store ptr %0, ptr %2, align 8, !tbaa !140
  %12 = load ptr, ptr %2, align 8
  call void @llvm.lifetime.start.p0(i64 4, ptr %3) #3
  %13 = getelementptr inbounds nuw %"class.google::protobuf::internal::RepeatedPtrFieldBase", ptr %12, i32 0, i32 1
  %14 = load i32, ptr %13, align 8, !tbaa !143
  store i32 %14, ptr %3, align 4, !tbaa !43
  br label %15

15:                                               ; preds = %30, %1
  br i1 false, label %16, label %46

16:                                               ; preds = %15
  %17 = load i32, ptr %3, align 4, !tbaa !43
  %18 = icmp sge i32 %17, 0
  store i1 false, ptr %5, align 1
  store i1 false, ptr %6, align 1
  call void @llvm.lifetime.start.p0(i64 1, ptr %9) #3
  br i1 %18, label %19, label %20

19:                                               ; preds = %16
  br label %24

20:                                               ; preds = %16
  call void @llvm.lifetime.start.p0(i64 56, ptr %4) #3
  store i1 true, ptr %5, align 1
  call void @_ZN6google8protobuf8internal10LogMessageC1ENS0_8LogLevelEPKci(ptr noundef nonnull align 8 dereferenceable(56) %4, i32 noundef 3, ptr noundef @.str.11, i32 noundef 926)
  store i1 true, ptr %6, align 1
  %21 = invoke noundef nonnull align 8 dereferenceable(56) ptr @_ZN6google8protobuf8internal10LogMessagelsEPKc(ptr noundef nonnull align 8 dereferenceable(56) %4, ptr noundef @.str.14)
          to label %22 unwind label %31

22:                                               ; preds = %20
  invoke void @_ZN6google8protobuf8internal11LogFinisheraSERNS1_10LogMessageE(ptr noundef nonnull align 1 dereferenceable(1) %9, ptr noundef nonnull align 8 dereferenceable(56) %21)
          to label %23 unwind label %35

23:                                               ; preds = %22
  br label %24

24:                                               ; preds = %23, %19
  call void @llvm.lifetime.end.p0(i64 1, ptr %9) #3
  %25 = load i1, ptr %6, align 1
  br i1 %25, label %26, label %27

26:                                               ; preds = %24
  call void @_ZN6google8protobuf8internal10LogMessageD1Ev(ptr noundef nonnull align 8 dereferenceable(56) %4) #3
  br label %27

27:                                               ; preds = %26, %24
  %28 = load i1, ptr %5, align 1
  br i1 %28, label %29, label %30

29:                                               ; preds = %27
  call void @llvm.lifetime.end.p0(i64 56, ptr %4) #3
  br label %30

30:                                               ; preds = %29, %27
  br label %15, !llvm.loop !150

31:                                               ; preds = %20
  %32 = landingpad { ptr, i32 }
          cleanup
  %33 = extractvalue { ptr, i32 } %32, 0
  store ptr %33, ptr %7, align 8
  %34 = extractvalue { ptr, i32 } %32, 1
  store i32 %34, ptr %8, align 4
  br label %39

35:                                               ; preds = %22
  %36 = landingpad { ptr, i32 }
          cleanup
  %37 = extractvalue { ptr, i32 } %36, 0
  store ptr %37, ptr %7, align 8
  %38 = extractvalue { ptr, i32 } %36, 1
  store i32 %38, ptr %8, align 4
  call void @llvm.lifetime.end.p0(i64 1, ptr %9) #3
  br label %39

39:                                               ; preds = %35, %31
  %40 = load i1, ptr %6, align 1
  br i1 %40, label %41, label %42

41:                                               ; preds = %39
  call void @_ZN6google8protobuf8internal10LogMessageD1Ev(ptr noundef nonnull align 8 dereferenceable(56) %4) #3
  br label %42

42:                                               ; preds = %41, %39
  %43 = load i1, ptr %5, align 1
  br i1 %43, label %44, label %45

44:                                               ; preds = %42
  call void @llvm.lifetime.end.p0(i64 56, ptr %4) #3
  br label %45

45:                                               ; preds = %44, %42
  call void @llvm.lifetime.end.p0(i64 4, ptr %3) #3
  br label %69

46:                                               ; preds = %15
  %47 = load i32, ptr %3, align 4, !tbaa !43
  %48 = icmp sgt i32 %47, 0
  br i1 %48, label %49, label %68

49:                                               ; preds = %46
  call void @llvm.lifetime.start.p0(i64 8, ptr %10) #3
  %50 = getelementptr inbounds nuw %"class.google::protobuf::internal::RepeatedPtrFieldBase", ptr %12, i32 0, i32 3
  %51 = load ptr, ptr %50, align 8, !tbaa !142
  %52 = getelementptr inbounds nuw %"struct.google::protobuf::internal::RepeatedPtrFieldBase::Rep", ptr %51, i32 0, i32 1
  %53 = getelementptr inbounds [268435454 x ptr], ptr %52, i64 0, i64 0
  store ptr %53, ptr %10, align 8, !tbaa !151
  call void @llvm.lifetime.start.p0(i64 4, ptr %11) #3
  store i32 0, ptr %11, align 4, !tbaa !43
  br label %54

54:                                               ; preds = %62, %49
  %55 = load ptr, ptr %10, align 8, !tbaa !151
  %56 = load i32, ptr %11, align 4, !tbaa !43
  %57 = add nsw i32 %56, 1
  store i32 %57, ptr %11, align 4, !tbaa !43
  %58 = sext i32 %56 to i64
  %59 = getelementptr inbounds ptr, ptr %55, i64 %58
  %60 = load ptr, ptr %59, align 8, !tbaa !42
  %61 = call noundef ptr @_ZN6google8protobuf8internal20RepeatedPtrFieldBase4castINS0_16RepeatedPtrFieldIN17opencv_tensorflow20TensorShapeProto_DimEE11TypeHandlerEEEPNT_4TypeEPv(ptr noundef %60)
  call void @_ZN6google8protobuf8internal18GenericTypeHandlerIN17opencv_tensorflow20TensorShapeProto_DimEE5ClearEPS4_(ptr noundef %61)
  br label %62

62:                                               ; preds = %54
  %63 = load i32, ptr %11, align 4, !tbaa !43
  %64 = load i32, ptr %3, align 4, !tbaa !43
  %65 = icmp slt i32 %63, %64
  br i1 %65, label %54, label %66, !llvm.loop !152

66:                                               ; preds = %62
  %67 = getelementptr inbounds nuw %"class.google::protobuf::internal::RepeatedPtrFieldBase", ptr %12, i32 0, i32 1
  store i32 0, ptr %67, align 8, !tbaa !143
  call void @llvm.lifetime.end.p0(i64 4, ptr %11) #3
  call void @llvm.lifetime.end.p0(i64 8, ptr %10) #3
  br label %68

68:                                               ; preds = %66, %46
  call void @llvm.lifetime.end.p0(i64 4, ptr %3) #3
  ret void

69:                                               ; preds = %45
  %70 = load ptr, ptr %7, align 8
  %71 = load i32, ptr %8, align 4
  %72 = insertvalue { ptr, i32 } poison, ptr %70, 0
  %73 = insertvalue { ptr, i32 } %72, i32 %71, 1
  resume { ptr, i32 } %73
}

; Function Attrs: alwaysinline mustprogress uwtable
define linkonce_odr hidden void @_ZN6google8protobuf8internal16InternalMetadata5ClearINS0_15UnknownFieldSetEEEvv(ptr noundef nonnull align 8 dereferenceable(8) %0) #8 comdat align 2 {
  %2 = alloca ptr, align 8
  store ptr %0, ptr %2, align 8, !tbaa !34
  %3 = load ptr, ptr %2, align 8
  %4 = call noundef zeroext i1 @_ZNK6google8protobuf8internal16InternalMetadata19have_unknown_fieldsEv(ptr noundef nonnull align 8 dereferenceable(8) %3)
  br i1 %4, label %5, label %6

5:                                                ; preds = %1
  call void @_ZN6google8protobuf8internal16InternalMetadata7DoClearINS0_15UnknownFieldSetEEEvv(ptr noundef nonnull align 8 dereferenceable(8) %3)
  br label %6

6:                                                ; preds = %5, %1
  ret void
}

; Function Attrs: inlinehint mustprogress uwtable
define linkonce_odr hidden void @_ZN6google8protobuf16RepeatedPtrFieldIN17opencv_tensorflow20TensorShapeProto_DimEE5ClearEv(ptr noundef nonnull align 8 dereferenceable(24) %0) #5 comdat align 2 {
  %2 = alloca ptr, align 8
  store ptr %0, ptr %2, align 8, !tbaa !82
  %3 = load ptr, ptr %2, align 8
  call void @_ZN6google8protobuf8internal20RepeatedPtrFieldBase5ClearINS0_16RepeatedPtrFieldIN17opencv_tensorflow20TensorShapeProto_DimEE11TypeHandlerEEEvv(ptr noundef nonnull align 8 dereferenceable(24) %3)
  ret void
}

; Function Attrs: mustprogress uwtable
define hidden void @_ZN17opencv_tensorflow16TensorShapeProto5ClearEv(ptr noundef nonnull align 8 dereferenceable(48) %0) unnamed_addr #4 align 2 {
  %2 = alloca ptr, align 8
  %3 = alloca i32, align 4
  store ptr %0, ptr %2, align 8, !tbaa !80
  %4 = load ptr, ptr %2, align 8
  call void @llvm.lifetime.start.p0(i64 4, ptr %3) #3
  store i32 0, ptr %3, align 4, !tbaa !43
  %5 = getelementptr inbounds nuw %"class.opencv_tensorflow::TensorShapeProto", ptr %4, i32 0, i32 1
  call void @_ZN6google8protobuf16RepeatedPtrFieldIN17opencv_tensorflow20TensorShapeProto_DimEE5ClearEv(ptr noundef nonnull align 8 dereferenceable(24) %5)
  %6 = getelementptr inbounds nuw %"class.opencv_tensorflow::TensorShapeProto", ptr %4, i32 0, i32 2
  store i8 0, ptr %6, align 8, !tbaa !84
  %7 = getelementptr inbounds nuw %"class.google::protobuf::MessageLite", ptr %4, i32 0, i32 1
  call void @_ZN6google8protobuf8internal16InternalMetadata5ClearINS0_15UnknownFieldSetEEEvv(ptr noundef nonnull align 8 dereferenceable(8) %7)
  call void @llvm.lifetime.end.p0(i64 4, ptr %3) #3
  ret void
}