; Function Attrs: mustprogress uwtable
define hidden void @_ZN17opencv_tensorflow16TensorShapeProto5ClearEv(ptr noundef nonnull align 8 dereferenceable(48) %0) unnamed_addr #3 align 2 personality ptr @__gxx_personality_v0 {
  %2 = getelementptr inbounds nuw i8, ptr %0, i64 24
  %3 = load i32, ptr %2, align 8, !tbaa !58
  %4 = icmp sgt i32 %3, 0
  br i1 %4, label %5, label %_ZN6google8protobuf16RepeatedPtrFieldIN17opencv_tensorflow20TensorShapeProto_DimEE5ClearEv.exit

5:                                                ; preds = %1
  %6 = getelementptr inbounds nuw i8, ptr %0, i64 32
  %7 = load ptr, ptr %6, align 8, !tbaa !57
  %8 = getelementptr inbounds nuw i8, ptr %7, i64 8
  %wide.trip.count.i.i = zext nneg i32 %3 to i64
  br label %9

9:                                                ; preds = %_ZN6google8protobuf8internal18GenericTypeHandlerIN17opencv_tensorflow20TensorShapeProto_DimEE5ClearEPS4_.exit.i.i, %5
  %indvars.iv.i.i = phi i64 [ %indvars.iv.next.i.i, %_ZN6google8protobuf8internal18GenericTypeHandlerIN17opencv_tensorflow20TensorShapeProto_DimEE5ClearEPS4_.exit.i.i ], [ 0, %5 ]
  %indvars.iv.next.i.i = add nuw nsw i64 %indvars.iv.i.i, 1
  %10 = getelementptr inbounds nuw ptr, ptr %8, i64 %indvars.iv.i.i
  %11 = load ptr, ptr %10, align 8, !tbaa !53
  %12 = getelementptr inbounds nuw i8, ptr %11, i64 16
  tail call void @_ZN6google8protobuf8internal14ArenaStringPtr12ClearToEmptyEv(ptr noundef nonnull align 8 dereferenceable(8) %12)
  %13 = getelementptr inbounds nuw i8, ptr %11, i64 24
  store i64 0, ptr %13, align 8, !tbaa !16
  %14 = getelementptr inbounds nuw i8, ptr %11, i64 8
  %15 = load i64, ptr %14, align 8, !tbaa !3
  %16 = and i64 %15, 1
  %.not.i.i.i.i = icmp eq i64 %16, 0
  br i1 %.not.i.i.i.i, label %_ZN6google8protobuf8internal18GenericTypeHandlerIN17opencv_tensorflow20TensorShapeProto_DimEE5ClearEPS4_.exit.i.i, label %17

17:                                               ; preds = %9
  tail call void @_ZN6google8protobuf8internal16InternalMetadata7DoClearINS0_15UnknownFieldSetEEEvv(ptr noundef nonnull align 8 dereferenceable(8) %14)
  br label %_ZN6google8protobuf8internal18GenericTypeHandlerIN17opencv_tensorflow20TensorShapeProto_DimEE5ClearEPS4_.exit.i.i

_ZN6google8protobuf8internal18GenericTypeHandlerIN17opencv_tensorflow20TensorShapeProto_DimEE5ClearEPS4_.exit.i.i: ; preds = %17, %9
  %exitcond.not.i.i = icmp eq i64 %indvars.iv.next.i.i, %wide.trip.count.i.i
  br i1 %exitcond.not.i.i, label %18, label %9, !llvm.loop !66

18:                                               ; preds = %_ZN6google8protobuf8internal18GenericTypeHandlerIN17opencv_tensorflow20TensorShapeProto_DimEE5ClearEPS4_.exit.i.i
  store i32 0, ptr %2, align 8, !tbaa !58
  br label %_ZN6google8protobuf16RepeatedPtrFieldIN17opencv_tensorflow20TensorShapeProto_DimEE5ClearEv.exit

_ZN6google8protobuf16RepeatedPtrFieldIN17opencv_tensorflow20TensorShapeProto_DimEE5ClearEv.exit: ; preds = %1, %18
  %19 = getelementptr inbounds nuw i8, ptr %0, i64 40
  store i8 0, ptr %19, align 8, !tbaa !61
  %20 = getelementptr inbounds nuw i8, ptr %0, i64 8
  %21 = load i64, ptr %20, align 8, !tbaa !3
  %22 = and i64 %21, 1
  %.not = icmp eq i64 %22, 0
  br i1 %.not, label %_ZN6google8protobuf8internal16InternalMetadata5ClearINS0_15UnknownFieldSetEEEvv.exit, label %23

23:                                               ; preds = %_ZN6google8protobuf16RepeatedPtrFieldIN17opencv_tensorflow20TensorShapeProto_DimEE5ClearEv.exit
  tail call void @_ZN6google8protobuf8internal16InternalMetadata7DoClearINS0_15UnknownFieldSetEEEvv(ptr noundef nonnull align 8 dereferenceable(8) %20)
  br label %_ZN6google8protobuf8internal16InternalMetadata5ClearINS0_15UnknownFieldSetEEEvv.exit

_ZN6google8protobuf8internal16InternalMetadata5ClearINS0_15UnknownFieldSetEEEvv.exit: ; preds = %_ZN6google8protobuf16RepeatedPtrFieldIN17opencv_tensorflow20TensorShapeProto_DimEE5ClearEv.exit, %23
  ret void
}